target datalayout = "e-m:e-p270:32:32-p271:32:32-p272:64:64-i64:64-i128:128-f80:128-n8:16:32:64-S128"
target triple = "x86_64-pc-linux-gnu"

@.str.2 = private unnamed_addr constant [2 x i8] c"\0A\00", align 1
@__const.Abs_GiaCofPrint.Mark = private unnamed_addr constant [2 x i32] [i32 1, i32 1], align 4
@.str.6 = private unnamed_addr constant [2 x i8] c" \00", align 1
@.str.7 = private unnamed_addr constant [3 x i8] c"%d\00", align 1

; Function Attrs: inlinehint nounwind uwtable
define internal i32 @Abc_InfoHasBit(ptr noundef %0, i32 noundef %1) #2 {
  %3 = alloca ptr, align 8
  %4 = alloca i32, align 4
  store ptr %0, ptr %3, align 8, !tbaa !79
  store i32 %1, ptr %4, align 4, !tbaa !10
  %5 = load ptr, ptr %3, align 8, !tbaa !79
  %6 = load i32, ptr %4, align 4, !tbaa !10
  %7 = ashr i32 %6, 5
  %8 = sext i32 %7 to i64
  %9 = getelementptr inbounds i32, ptr %5, i64 %8
  %10 = load i32, ptr %9, align 4, !tbaa !10
  %11 = load i32, ptr %4, align 4, !tbaa !10
  %12 = and i32 %11, 31
  %13 = shl i32 1, %12
  %14 = and i32 %10, %13
  %15 = icmp ugt i32 %14, 0
  %16 = zext i1 %15 to i32
  ret i32 %16
}

; Function Attrs: nounwind uwtable
define i32 @Abs_GiaCofPrint(ptr noundef %0, i32 noundef %1, i32 noundef %2, i32 noundef %3) #0 {
  %5 = alloca ptr, align 8
  %6 = alloca i32, align 4
  %7 = alloca i32, align 4
  %8 = alloca i32, align 4
  %9 = alloca i32, align 4
  %10 = alloca i32, align 4
  %11 = alloca i32, align 4
  %12 = alloca i32, align 4
  %13 = alloca [2 x i32], align 4
  store ptr %0, ptr %5, align 8, !tbaa !76
  store i32 %1, ptr %6, align 4, !tbaa !10
  store i32 %2, ptr %7, align 4, !tbaa !10
  store i32 %3, ptr %8, align 4, !tbaa !10
  call void @llvm.lifetime.start.p0(i64 4, ptr %9) #13
  call void @llvm.lifetime.start.p0(i64 4, ptr %10) #13
  call void @llvm.lifetime.start.p0(i64 4, ptr %11) #13
  %14 = load i32, ptr %6, align 4, !tbaa !10
  %15 = shl i32 1, %14
  store i32 %15, ptr %11, align 4, !tbaa !10
  call void @llvm.lifetime.start.p0(i64 4, ptr %12) #13
  %16 = load i32, ptr %7, align 4, !tbaa !10
  %17 = shl i32 1, %16
  store i32 %17, ptr %12, align 4, !tbaa !10
  call void @llvm.lifetime.start.p0(i64 8, ptr %13) #13
  call void @llvm.memcpy.p0.p0.i64(ptr align 4 %13, ptr align 4 @__const.Abs_GiaCofPrint.Mark, i64 8, i1 false)
  store i32 0, ptr %9, align 4, !tbaa !10
  br label %18

18:                                               ; preds = %40, %4
  %19 = load i32, ptr %9, align 4, !tbaa !10
  %20 = load i32, ptr %11, align 4, !tbaa !10
  %21 = icmp slt i32 %19, %20
  br i1 %21, label %22, label %43

22:                                               ; preds = %18
  %23 = load i32, ptr %9, align 4, !tbaa !10
  %24 = load i32, ptr %12, align 4, !tbaa !10
  %25 = srem i32 %23, %24
  %26 = icmp eq i32 %25, 0
  br i1 %26, label %27, label %31

27:                                               ; preds = %22
  %28 = call i32 (ptr, ...) @printf(ptr noundef @.str.6)
  %29 = getelementptr inbounds [2 x i32], ptr %13, i64 0, i64 1
  store i32 0, ptr %29, align 4, !tbaa !10
  %30 = getelementptr inbounds [2 x i32], ptr %13, i64 0, i64 0
  store i32 0, ptr %30, align 4, !tbaa !10
  br label %31

31:                                               ; preds = %27, %22
  %32 = load ptr, ptr %5, align 8, !tbaa !76
  %33 = load i32, ptr %9, align 4, !tbaa !10
  %34 = call i32 @Abc_InfoHasBit(ptr noundef %32, i32 noundef %33)
  store i32 %34, ptr %10, align 4, !tbaa !10
  %35 = load i32, ptr %10, align 4, !tbaa !10
  %36 = sext i32 %35 to i64
  %37 = getelementptr inbounds [2 x i32], ptr %13, i64 0, i64 %36
  store i32 1, ptr %37, align 4, !tbaa !10
  %38 = load i32, ptr %10, align 4, !tbaa !10
  %39 = call i32 (ptr, ...) @printf(ptr noundef @.str.7, i32 noundef %38)
  br label %40

40:                                               ; preds = %31
  %41 = load i32, ptr %9, align 4, !tbaa !10
  %42 = add nsw i32 %41, 1
  store i32 %42, ptr %9, align 4, !tbaa !10
  br label %18, !llvm.loop !78

43:                                               ; preds = %18
  %44 = call i32 (ptr, ...) @printf(ptr noundef @.str.2)
  call void @llvm.lifetime.end.p0(i64 8, ptr %13) #13
  call void @llvm.lifetime.end.p0(i64 4, ptr %12) #13
  call void @llvm.lifetime.end.p0(i64 4, ptr %11) #13
  call void @llvm.lifetime.end.p0(i64 4, ptr %10) #13
  call void @llvm.lifetime.end.p0(i64 4, ptr %9) #13
  ret i32 1
}