; Function Attrs: nofree nounwind uwtable
define noundef i32 @Abs_GiaCofPrint(ptr noundef readonly captures(none) %0, i32 noundef %1, i32 noundef %2, i32 noundef %3) local_unnamed_addr #8 {
  %.not = icmp eq i32 %1, 31
  br i1 %.not, label %._crit_edge, label %.lr.ph

.lr.ph:                                           ; preds = %4
  %5 = shl nuw nsw i32 1, %1
  %notmask = shl nsw i32 -1, %2
  %6 = xor i32 %notmask, -1
  br label %7

7:                                                ; preds = %.lr.ph, %11
  %.011 = phi i32 [ 0, %.lr.ph ], [ %20, %11 ]
  %8 = and i32 %.011, %6
  %9 = icmp eq i32 %8, 0
  br i1 %9, label %10, label %11

10:                                               ; preds = %7
  %putchar10 = tail call i32 @putchar(i32 32)
  br label %11

11:                                               ; preds = %10, %7
  %12 = lshr i32 %.011, 5
  %13 = zext nneg i32 %12 to i64
  %14 = getelementptr inbounds nuw i32, ptr %0, i64 %13
  %15 = load i32, ptr %14, align 4, !tbaa !30
  %16 = and i32 %.011, 31
  %17 = lshr i32 %15, %16
  %18 = and i32 %17, 1
  %19 = tail call i32 (ptr, ...) @printf(ptr noundef nonnull dereferenceable(1) @.str.7, i32 noundef %18)
  %20 = add nuw nsw i32 %.011, 1
  %exitcond.not = icmp eq i32 %20, %5
  br i1 %exitcond.not, label %._crit_edge, label %7, !llvm.loop !77

._crit_edge:                                      ; preds = %11, %4
  %putchar = tail call i32 @putchar(i32 10)
  ret i32 1
}